target datalayout = "e-m:e-p270:32:32-p271:32:32-p272:64:64-i64:64-i128:128-f80:128-n8:16:32:64-S128"
target triple = "x86_64-pc-linux-gnu"

%struct._mate_config = type { ptr, i32, ptr, i32, ptr, ptr, ptr, ptr, ptr, ptr, ptr, ptr, ptr, ptr, i32, ptr, %struct._mate_cfg_defaults, i32, i32, i32, i32, ptr, ptr }
%struct._mate_cfg_defaults = type { %struct._pdu_defaults, %struct._gop_defaults, %struct._gog_defaults }
%struct._pdu_defaults = type { i32, i32, i8, i8, i8 }
%struct._gop_defaults = type { double, double, double, i32, i8, i8 }
%struct._gog_defaults = type { double, i8, i32 }
%struct._header_field_info = type { ptr, ptr, i32, i32, ptr, i64, ptr, i32, i32, i32, i32, ptr }
%struct._GPtrArray = type { ptr, i32 }
%struct.hf_register_info = type { ptr, %struct._header_field_info }
%struct._avp = type { ptr, ptr, i8 }
%struct._avpl_transf = type { ptr, ptr, ptr, i32, i32, ptr, ptr }

@.str.15 = private unnamed_addr constant [11 x i8] c"mate.%s.%s\00", align 1
@.str.16 = private unnamed_addr constant [19 x i8] c"%s attribute of %s\00", align 1

; Function Attrs: alwaysinline nounwind
define internal ptr @memset.inline(ptr %0, i32 %1, i64 %2) #12 {
  %4 = alloca ptr, align 8
  %5 = alloca i32, align 4
  %6 = alloca i64, align 8
  store ptr %0, ptr %4, align 8
  store i32 %1, ptr %5, align 4
  store i64 %2, ptr %6, align 8
  %7 = load ptr, ptr %4, align 8
  %8 = load i32, ptr %5, align 4
  %9 = load i64, ptr %6, align 8
  %10 = load ptr, ptr %4, align 8
  %11 = call i64 @llvm.objectsize.i64.p0(ptr %10, i1 false, i1 true, i1 true)
  %12 = call ptr @__memset_chk(ptr noundef %7, i32 noundef %8, i64 noundef %9, i64 noundef %11) #14
  ret ptr %12
}

; Function Attrs: null_pointer_is_valid sspstrong uwtable
define internal void @new_attr_hfri(ptr noundef %0, ptr noundef %1, ptr noundef %2, ptr noundef %3) #0 {
  %5 = alloca ptr, align 8
  %6 = alloca ptr, align 8
  %7 = alloca ptr, align 8
  %8 = alloca ptr, align 8
  %9 = alloca ptr, align 8
  %10 = alloca i64, align 8
  %11 = alloca i64, align 8
  %12 = alloca ptr, align 8
  %13 = alloca ptr, align 8
  %14 = alloca %struct.hf_register_info, align 8
  store ptr %0, ptr %5, align 8
  store ptr %1, ptr %6, align 8
  store ptr %2, ptr %7, align 8
  store ptr %3, ptr %8, align 8
  call void @llvm.lifetime.start.p0(i64 8, ptr %9) #14
  call void @llvm.lifetime.start.p0(i64 8, ptr %10) #14
  store i64 1, ptr %10, align 8
  call void @llvm.lifetime.start.p0(i64 8, ptr %11) #14
  store i64 4, ptr %11, align 8
  call void @llvm.lifetime.start.p0(i64 8, ptr %12) #14
  %15 = load i64, ptr %11, align 8
  %16 = icmp eq i64 %15, 1
  br i1 %16, label %17, label %20

17:                                               ; preds = %4
  %18 = load i64, ptr %10, align 8
  %19 = call noalias ptr @g_malloc(i64 noundef %18) #15
  store ptr %19, ptr %12, align 8
  br label %41

20:                                               ; preds = %4
  %21 = load i64, ptr %10, align 8
  %22 = call i1 @llvm.is.constant.i64(i64 %21)
  br i1 %22, label %23, label %36

23:                                               ; preds = %20
  %24 = load i64, ptr %11, align 8
  %25 = icmp eq i64 %24, 0
  br i1 %25, label %31, label %26

26:                                               ; preds = %23
  %27 = load i64, ptr %10, align 8
  %28 = load i64, ptr %11, align 8
  %29 = udiv i64 -1, %28
  %30 = icmp ule i64 %27, %29
  br i1 %30, label %31, label %36

31:                                               ; preds = %26, %23
  %32 = load i64, ptr %10, align 8
  %33 = load i64, ptr %11, align 8
  %34 = mul i64 %32, %33
  %35 = call noalias ptr @g_malloc(i64 noundef %34) #15
  store ptr %35, ptr %12, align 8
  br label %40

36:                                               ; preds = %26, %20
  %37 = load i64, ptr %10, align 8
  %38 = load i64, ptr %11, align 8
  %39 = call noalias ptr @g_malloc_n(i64 noundef %37, i64 noundef %38) #16
  store ptr %39, ptr %12, align 8
  br label %40

40:                                               ; preds = %36, %31
  br label %41

41:                                               ; preds = %40, %17
  %42 = load ptr, ptr %12, align 8
  store ptr %42, ptr %13, align 8
  call void @llvm.lifetime.end.p0(i64 8, ptr %12) #14
  call void @llvm.lifetime.end.p0(i64 8, ptr %11) #14
  call void @llvm.lifetime.end.p0(i64 8, ptr %10) #14
  %43 = load ptr, ptr %13, align 8
  store ptr %43, ptr %9, align 8
  call void @llvm.lifetime.start.p0(i64 80, ptr %14) #14
  %44 = call ptr @memset.inline(ptr noundef %14, i32 noundef 0, i64 noundef 80) #14
  %45 = load ptr, ptr %9, align 8
  store i32 -1, ptr %45, align 4
  %46 = load ptr, ptr %9, align 8
  %47 = getelementptr inbounds nuw %struct.hf_register_info, ptr %14, i32 0, i32 0
  store ptr %46, ptr %47, align 8
  %48 = load ptr, ptr %8, align 8
  %49 = call noalias ptr @g_strdup(ptr noundef %48)
  %50 = getelementptr inbounds nuw %struct.hf_register_info, ptr %14, i32 0, i32 1
  %51 = getelementptr inbounds nuw %struct._header_field_info, ptr %50, i32 0, i32 0
  store ptr %49, ptr %51, align 8
  %52 = load ptr, ptr %6, align 8
  %53 = load ptr, ptr %8, align 8
  %54 = call noalias ptr (ptr, ptr, ...) @wmem_strdup_printf(ptr noundef null, ptr noundef @.str.15, ptr noundef %52, ptr noundef %53)
  %55 = getelementptr inbounds nuw %struct.hf_register_info, ptr %14, i32 0, i32 1
  %56 = getelementptr inbounds nuw %struct._header_field_info, ptr %55, i32 0, i32 1
  store ptr %54, ptr %56, align 8
  %57 = getelementptr inbounds nuw %struct.hf_register_info, ptr %14, i32 0, i32 1
  %58 = getelementptr inbounds nuw %struct._header_field_info, ptr %57, i32 0, i32 2
  store i32 26, ptr %58, align 8
  %59 = getelementptr inbounds nuw %struct.hf_register_info, ptr %14, i32 0, i32 1
  %60 = getelementptr inbounds nuw %struct._header_field_info, ptr %59, i32 0, i32 3
  store i32 0, ptr %60, align 4
  %61 = getelementptr inbounds nuw %struct.hf_register_info, ptr %14, i32 0, i32 1
  %62 = getelementptr inbounds nuw %struct._header_field_info, ptr %61, i32 0, i32 4
  store ptr null, ptr %62, align 8
  %63 = getelementptr inbounds nuw %struct.hf_register_info, ptr %14, i32 0, i32 1
  %64 = getelementptr inbounds nuw %struct._header_field_info, ptr %63, i32 0, i32 5
  store i64 0, ptr %64, align 8
  %65 = load ptr, ptr %8, align 8
  %66 = load ptr, ptr %6, align 8
  %67 = call noalias ptr (ptr, ptr, ...) @wmem_strdup_printf(ptr noundef null, ptr noundef @.str.16, ptr noundef %65, ptr noundef %66)
  %68 = getelementptr inbounds nuw %struct.hf_register_info, ptr %14, i32 0, i32 1
  %69 = getelementptr inbounds nuw %struct._header_field_info, ptr %68, i32 0, i32 6
  store ptr %67, ptr %69, align 8
  %70 = load ptr, ptr %9, align 8
  store i32 -1, ptr %70, align 4
  %71 = load ptr, ptr %7, align 8
  %72 = load ptr, ptr %8, align 8
  %73 = load ptr, ptr %9, align 8
  %74 = call i32 @g_hash_table_insert(ptr noundef %71, ptr noundef %72, ptr noundef %73)
  %75 = load ptr, ptr %5, align 8
  %76 = getelementptr inbounds nuw %struct._mate_config, ptr %75, i32 0, i32 13
  %77 = load ptr, ptr %76, align 8
  %78 = call ptr @g_array_append_vals(ptr noundef %77, ptr noundef %14, i32 noundef 1)
  call void @llvm.lifetime.end.p0(i64 80, ptr %14) #14
  call void @llvm.lifetime.end.p0(i64 8, ptr %9) #14
  ret void
}

; Function Attrs: null_pointer_is_valid sspstrong uwtable
define internal void @analyze_transform_hfrs(ptr noundef %0, ptr noundef %1, ptr noundef %2, ptr noundef %3) #0 {
  %5 = alloca ptr, align 8
  %6 = alloca ptr, align 8
  %7 = alloca ptr, align 8
  %8 = alloca ptr, align 8
  %9 = alloca i32, align 4
  %10 = alloca ptr, align 8
  %11 = alloca ptr, align 8
  %12 = alloca ptr, align 8
  store ptr %0, ptr %5, align 8
  store ptr %1, ptr %6, align 8
  store ptr %2, ptr %7, align 8
  store ptr %3, ptr %8, align 8
  call void @llvm.lifetime.start.p0(i64 4, ptr %9) #14
  call void @llvm.lifetime.start.p0(i64 8, ptr %10) #14
  store ptr null, ptr %10, align 8
  call void @llvm.lifetime.start.p0(i64 8, ptr %11) #14
  call void @llvm.lifetime.start.p0(i64 8, ptr %12) #14
  store i32 0, ptr %9, align 4
  br label %13

13:                                               ; preds = %58, %4
  %14 = load i32, ptr %9, align 4
  %15 = load ptr, ptr %7, align 8
  %16 = getelementptr inbounds nuw %struct._GPtrArray, ptr %15, i32 0, i32 1
  %17 = load i32, ptr %16, align 8
  %18 = icmp ult i32 %14, %17
  br i1 %18, label %19, label %61

19:                                               ; preds = %13
  %20 = load ptr, ptr %7, align 8
  %21 = getelementptr inbounds nuw %struct._GPtrArray, ptr %20, i32 0, i32 0
  %22 = load ptr, ptr %21, align 8
  %23 = load i32, ptr %9, align 4
  %24 = zext i32 %23 to i64
  %25 = getelementptr ptr, ptr %22, i64 %24
  %26 = load ptr, ptr %25, align 8
  store ptr %26, ptr %11, align 8
  br label %27

27:                                               ; preds = %53, %19
  %28 = load ptr, ptr %11, align 8
  %29 = icmp ne ptr %28, null
  br i1 %29, label %30, label %57

30:                                               ; preds = %27
  store ptr null, ptr %10, align 8
  br label %31

31:                                               ; preds = %51, %30
  %32 = load ptr, ptr %11, align 8
  %33 = getelementptr inbounds nuw %struct._avpl_transf, ptr %32, i32 0, i32 2
  %34 = load ptr, ptr %33, align 8
  %35 = call ptr @get_next_avp(ptr noundef %34, ptr noundef %10)
  store ptr %35, ptr %12, align 8
  %36 = icmp ne ptr %35, null
  br i1 %36, label %37, label %52

37:                                               ; preds = %31
  %38 = load ptr, ptr %8, align 8
  %39 = load ptr, ptr %12, align 8
  %40 = getelementptr inbounds nuw %struct._avp, ptr %39, i32 0, i32 0
  %41 = load ptr, ptr %40, align 8
  %42 = call ptr @g_hash_table_lookup(ptr noundef %38, ptr noundef %41)
  %43 = icmp ne ptr %42, null
  br i1 %43, label %51, label %44

44:                                               ; preds = %37
  %45 = load ptr, ptr %5, align 8
  %46 = load ptr, ptr %6, align 8
  %47 = load ptr, ptr %8, align 8
  %48 = load ptr, ptr %12, align 8
  %49 = getelementptr inbounds nuw %struct._avp, ptr %48, i32 0, i32 0
  %50 = load ptr, ptr %49, align 8
  call void @new_attr_hfri(ptr noundef %45, ptr noundef %46, ptr noundef %47, ptr noundef %50)
  br label %51

51:                                               ; preds = %44, %37
  br label %31, !llvm.loop !20

52:                                               ; preds = %31
  br label %53

53:                                               ; preds = %52
  %54 = load ptr, ptr %11, align 8
  %55 = getelementptr inbounds nuw %struct._avpl_transf, ptr %54, i32 0, i32 6
  %56 = load ptr, ptr %55, align 8
  store ptr %56, ptr %11, align 8
  br label %27, !llvm.loop !21

57:                                               ; preds = %27
  br label %58

58:                                               ; preds = %57
  %59 = load i32, ptr %9, align 4
  %60 = add i32 %59, 1
  store i32 %60, ptr %9, align 4
  br label %13, !llvm.loop !22

61:                                               ; preds = %13
  call void @llvm.lifetime.end.p0(i64 8, ptr %12) #14
  call void @llvm.lifetime.end.p0(i64 8, ptr %11) #14
  call void @llvm.lifetime.end.p0(i64 8, ptr %10) #14
  call void @llvm.lifetime.end.p0(i64 4, ptr %9) #14
  ret void
}