; Function Attrs: null_pointer_is_valid sspstrong uwtable
define internal fastcc void @analyze_transform_hfrs(ptr noundef readonly captures(none) %0, ptr noundef %1, ptr noundef readonly captures(none) %2, ptr noundef %3) unnamed_addr #0 {
  %5 = alloca %struct.hf_register_info, align 8
  %6 = alloca ptr, align 8
  call void @llvm.lifetime.start.p0(i64 8, ptr nonnull %6) #9
  store ptr null, ptr %6, align 8
  %7 = getelementptr inbounds nuw i8, ptr %2, i64 8
  %8 = load i32, ptr %7, align 8
  %.not28 = icmp eq i32 %8, 0
  br i1 %.not28, label %._crit_edge27, label %.lr.ph26

.lr.ph26:                                         ; preds = %4
  %9 = getelementptr inbounds nuw i8, ptr %5, i64 56
  %10 = getelementptr inbounds nuw i8, ptr %5, i64 8
  %11 = getelementptr inbounds nuw i8, ptr %5, i64 16
  %12 = getelementptr inbounds nuw i8, ptr %5, i64 24
  %13 = getelementptr inbounds nuw i8, ptr %5, i64 28
  %14 = getelementptr inbounds nuw i8, ptr %5, i64 48
  %15 = getelementptr inbounds nuw i8, ptr %0, i64 104
  br label %16

16:                                               ; preds = %.lr.ph26, %._crit_edge23
  %17 = phi i32 [ %8, %.lr.ph26 ], [ %39, %._crit_edge23 ]
  %indvars.iv = phi i64 [ 0, %.lr.ph26 ], [ %indvars.iv.next, %._crit_edge23 ]
  %18 = load ptr, ptr %2, align 8
  %19 = getelementptr ptr, ptr %18, i64 %indvars.iv
  %.01318 = load ptr, ptr %19, align 8
  %.not19 = icmp eq ptr %.01318, null
  br i1 %.not19, label %._crit_edge23, label %.lr.ph22

.lr.ph22:                                         ; preds = %16, %._crit_edge
  %.01320 = phi ptr [ %.013, %._crit_edge ], [ %.01318, %16 ]
  store ptr null, ptr %6, align 8
  %20 = getelementptr inbounds nuw i8, ptr %.01320, i64 16
  %21 = load ptr, ptr %20, align 8
  %22 = call ptr @get_next_avp(ptr noundef %21, ptr noundef nonnull %6)
  %.not1517 = icmp eq ptr %22, null
  br i1 %.not1517, label %._crit_edge, label %.lr.ph

.lr.ph:                                           ; preds = %.lr.ph22, %35
  %23 = phi ptr [ %37, %35 ], [ %22, %.lr.ph22 ]
  %24 = load ptr, ptr %23, align 8
  %25 = call ptr @g_hash_table_lookup(ptr noundef %3, ptr noundef %24)
  %.not16 = icmp eq ptr %25, null
  br i1 %.not16, label %26, label %35

26:                                               ; preds = %.lr.ph
  %27 = load ptr, ptr %23, align 8
  %28 = call noalias dereferenceable_or_null(4) ptr @g_malloc(i64 noundef 4) #8
  call void @llvm.lifetime.start.p0(i64 80, ptr nonnull %5) #9
  call void @llvm.memset.p0.i64(ptr noundef nonnull align 8 dereferenceable(80) %9, i8 noundef 0, i64 noundef 24, i1 noundef false) #9
  store i32 -1, ptr %28, align 4
  store ptr %28, ptr %5, align 8
  %29 = call noalias ptr @g_strdup(ptr noundef %27)
  store ptr %29, ptr %10, align 8
  %30 = call noalias ptr (ptr, ptr, ...) @wmem_strdup_printf(ptr noundef null, ptr noundef nonnull @.str.15, ptr noundef %1, ptr noundef %27)
  store ptr %30, ptr %11, align 8
  store i32 26, ptr %12, align 8
  call void @llvm.memset.p0.i64(ptr noundef nonnull align 4 dereferenceable(20) %13, i8 0, i64 20, i1 false)
  %31 = call noalias ptr (ptr, ptr, ...) @wmem_strdup_printf(ptr noundef null, ptr noundef nonnull @.str.16, ptr noundef %27, ptr noundef %1)
  store ptr %31, ptr %14, align 8
  store i32 -1, ptr %28, align 4
  %32 = call i32 @g_hash_table_insert(ptr noundef %3, ptr noundef %27, ptr noundef %28)
  %33 = load ptr, ptr %15, align 8
  %34 = call ptr @g_array_append_vals(ptr noundef %33, ptr noundef nonnull %5, i32 noundef 1)
  call void @llvm.lifetime.end.p0(i64 80, ptr nonnull %5) #9
  br label %35

35:                                               ; preds = %26, %.lr.ph
  %36 = load ptr, ptr %20, align 8
  %37 = call ptr @get_next_avp(ptr noundef %36, ptr noundef nonnull %6)
  %.not15 = icmp eq ptr %37, null
  br i1 %.not15, label %._crit_edge, label %.lr.ph, !llvm.loop !18

._crit_edge:                                      ; preds = %35, %.lr.ph22
  %38 = getelementptr inbounds nuw i8, ptr %.01320, i64 40
  %.013 = load ptr, ptr %38, align 8
  %.not = icmp eq ptr %.013, null
  br i1 %.not, label %._crit_edge23.loopexit, label %.lr.ph22, !llvm.loop !19

._crit_edge23.loopexit:                           ; preds = %._crit_edge
  %.pre = load i32, ptr %7, align 8
  br label %._crit_edge23

._crit_edge23:                                    ; preds = %._crit_edge23.loopexit, %16
  %39 = phi i32 [ %.pre, %._crit_edge23.loopexit ], [ %17, %16 ]
  %indvars.iv.next = add nuw nsw i64 %indvars.iv, 1
  %40 = zext i32 %39 to i64
  %41 = icmp samesign ult i64 %indvars.iv.next, %40
  br i1 %41, label %16, label %._crit_edge27, !llvm.loop !20

._crit_edge27:                                    ; preds = %._crit_edge23, %4
  call void @llvm.lifetime.end.p0(i64 8, ptr nonnull %6) #9
  ret void
}